target datalayout = "e-m:e-p270:32:32-p271:32:32-p272:64:64-i64:64-i128:128-f80:128-n8:16:32:64-S128"
target triple = "x86_64-pc-linux-gnu"

@pendingOps = internal global ptr null, align 8

; Function Attrs: nounwind uwtable
define dso_local zeroext i1 @RegisterSyncRequest(ptr noundef %0, i32 noundef %1, i1 noundef zeroext %2) #0 {
  %4 = alloca i1, align 1
  %5 = alloca ptr, align 8
  %6 = alloca i32, align 4
  %7 = alloca i8, align 1
  %8 = alloca i8, align 1
  %9 = alloca i32, align 4
  store ptr %0, ptr %5, align 8
  store i32 %1, ptr %6, align 4
  %10 = zext i1 %2 to i8
  store i8 %10, ptr %7, align 1
  call void @llvm.lifetime.start.p0(i64 1, ptr %8) #9
  %11 = load ptr, ptr @pendingOps, align 8
  %12 = icmp ne ptr %11, null
  br i1 %12, label %13, label %16

13:                                               ; preds = %3
  %14 = load ptr, ptr %5, align 8
  %15 = load i32, ptr %6, align 4
  call void @RememberSyncRequest(ptr noundef %14, i32 noundef %15)
  store i1 true, ptr %4, align 1
  store i32 1, ptr %9, align 4
  br label %36

16:                                               ; preds = %3
  br label %17

17:                                               ; preds = %31, %16
  %18 = load ptr, ptr %5, align 8
  %19 = load i32, ptr %6, align 4
  %20 = call zeroext i1 @ForwardSyncRequest(ptr noundef %18, i32 noundef %19)
  %21 = zext i1 %20 to i8
  store i8 %21, ptr %8, align 1
  %22 = load i8, ptr %8, align 1, !range !4, !noundef !5
  %23 = trunc i8 %22 to i1
  br i1 %23, label %30, label %24

24:                                               ; preds = %17
  %25 = load i8, ptr %8, align 1, !range !4, !noundef !5
  %26 = trunc i8 %25 to i1
  br i1 %26, label %31, label %27

27:                                               ; preds = %24
  %28 = load i8, ptr %7, align 1, !range !4, !noundef !5
  %29 = trunc i8 %28 to i1
  br i1 %29, label %31, label %30

30:                                               ; preds = %27, %17
  br label %33

31:                                               ; preds = %27, %24
  %32 = call i32 @WaitLatch(ptr noundef null, i32 noundef 40, i64 noundef 10, i32 noundef 150994949)
  br label %17

33:                                               ; preds = %30
  %34 = load i8, ptr %8, align 1, !range !4, !noundef !5
  %35 = trunc i8 %34 to i1
  store i1 %35, ptr %4, align 1
  store i32 1, ptr %9, align 4
  br label %36

36:                                               ; preds = %33, %13
  call void @llvm.lifetime.end.p0(i64 1, ptr %8) #9
  %37 = load i1, ptr %4, align 1
  ret i1 %37
}